; Function Attrs: mustprogress nofree norecurse nosync nounwind willreturn memory(argmem: read) uwtable
define noundef ptr @_ZN10duckdb_hll11sdsAllocPtrEPc(ptr noundef readonly captures(ret: address, provenance) %0) local_unnamed_addr #13 {
  %2 = getelementptr inbounds i8, ptr %0, i64 -1
  %3 = load i8, ptr %2, align 1, !tbaa !20
  %4 = and i8 %3, 7
  %5 = icmp samesign ult i8 %4, 5
  br i1 %5, label %switch.lookup, label %_ZN10duckdb_hllL10sdsHdrSizeEc.exit

switch.lookup:                                    ; preds = %1
  %6 = zext nneg i8 %4 to i64
  %switch.gep = getelementptr inbounds nuw [5 x i64], ptr @switch.table._ZN10duckdb_hll12sdssplitargsEPKcPi.4, i64 0, i64 %6
  %switch.load = load i64, ptr %switch.gep, align 8
  br label %_ZN10duckdb_hllL10sdsHdrSizeEc.exit

_ZN10duckdb_hllL10sdsHdrSizeEc.exit:              ; preds = %1, %switch.lookup
  %.0.i.neg = phi i64 [ %switch.load, %switch.lookup ], [ 0, %1 ]
  %7 = getelementptr inbounds i8, ptr %0, i64 %.0.i.neg
  ret ptr %7
}